target datalayout = "e-m:e-p270:32:32-p271:32:32-p272:64:64-i64:64-i128:128-f80:128-n8:16:32:64-S128"
target triple = "x86_64-pc-linux-gnu"

%"class.std::__shared_count" = type { ptr }
%"class.dropbox::oxygen::nn.42" = type { %"class.std::shared_ptr.43" }
%"class.std::shared_ptr.43" = type { %"class.std::__shared_ptr.44" }
%"class.std::__shared_ptr.44" = type { ptr, %"class.std::__shared_count" }
%"struct.std::_Vector_base.140" = type { %"struct.std::_Vector_base<dropbox::oxygen::nn<std::shared_ptr<osgeo::proj::operation::ParameterValue>>, std::allocator<dropbox::oxygen::nn<std::shared_ptr<osgeo::proj::operation::ParameterValue>>>>::_Vector_impl" }
%"struct.std::_Vector_base<dropbox::oxygen::nn<std::shared_ptr<osgeo::proj::operation::ParameterValue>>, std::allocator<dropbox::oxygen::nn<std::shared_ptr<osgeo::proj::operation::ParameterValue>>>>::_Vector_impl" = type { %"struct.std::_Vector_base<dropbox::oxygen::nn<std::shared_ptr<osgeo::proj::operation::ParameterValue>>, std::allocator<dropbox::oxygen::nn<std::shared_ptr<osgeo::proj::operation::ParameterValue>>>>::_Vector_impl_data" }
%"struct.std::_Vector_base<dropbox::oxygen::nn<std::shared_ptr<osgeo::proj::operation::ParameterValue>>, std::allocator<dropbox::oxygen::nn<std::shared_ptr<osgeo::proj::operation::ParameterValue>>>>::_Vector_impl_data" = type { ptr, ptr, ptr }
%"struct.osgeo::proj::operation::VectorOfValues" = type { %"class.std::vector.139" }
%"class.std::vector.139" = type { %"struct.std::_Vector_base.140" }

; Function Attrs: mustprogress uwtable
define hidden void @_ZN5osgeo4proj9operation10Conversion6createERKNS0_4util11PropertyMapEiRKSt6vectorIN7dropbox6oxygen2nnISt10shared_ptrINS1_14ParameterValueEEEESaISE_EE(ptr dead_on_unwind noalias writable sret(%"class.dropbox::oxygen::nn.42") align 8 %0, ptr noundef nonnull align 8 dereferenceable(8) %1, i32 noundef %2, ptr noundef nonnull align 8 dereferenceable(24) %3) #0 align 2 {
  %5 = alloca ptr, align 8
  %6 = alloca ptr, align 8
  %7 = alloca i32, align 4
  %8 = alloca ptr, align 8
  %9 = alloca ptr, align 8
  store ptr %0, ptr %5, align 8
  store ptr %1, ptr %6, align 8, !tbaa !57
  store i32 %2, ptr %7, align 4, !tbaa !87
  store ptr %3, ptr %8, align 8, !tbaa !74
  call void @llvm.lifetime.start.p0(i64 8, ptr %9) #24
  %10 = load i32, ptr %7, align 4, !tbaa !87
  %11 = call noundef ptr @_ZN5osgeo4proj9operation10getMappingEi(i32 noundef %10) #24
  store ptr %11, ptr %9, align 8, !tbaa !89
  %12 = load ptr, ptr %6, align 8, !tbaa !57
  %13 = load ptr, ptr %9, align 8, !tbaa !89
  %14 = load ptr, ptr %8, align 8, !tbaa !74
  call void @_ZN5osgeo4proj9operationL16createConversionERKNS0_4util11PropertyMapEPKNS1_13MethodMappingERKSt6vectorIN7dropbox6oxygen2nnISt10shared_ptrINS1_14ParameterValueEEEESaISG_EE(ptr dead_on_unwind writable sret(%"class.dropbox::oxygen::nn.42") align 8 %0, ptr noundef nonnull align 8 dereferenceable(8) %12, ptr noundef %13, ptr noundef nonnull align 8 dereferenceable(24) %14)
  call void @llvm.lifetime.end.p0(i64 8, ptr %9) #24
  ret void
}

; Function Attrs: mustprogress uwtable
define void @_ZN5osgeo4proj9operation10Conversion24createTransverseMercatorERKNS0_4util11PropertyMapERKNS0_6common5AngleESA_RKNS7_5ScaleERKNS7_6LengthESG_(ptr dead_on_unwind noalias writable sret(%"class.dropbox::oxygen::nn.42") align 8 %0, ptr noundef nonnull align 8 dereferenceable(8) %1, ptr noundef nonnull align 8 dereferenceable(24) %2, ptr noundef nonnull align 8 dereferenceable(24) %3, ptr noundef nonnull align 8 dereferenceable(24) %4, ptr noundef nonnull align 8 dereferenceable(24) %5, ptr noundef nonnull align 8 dereferenceable(24) %6) #0 align 2 personality ptr @__gxx_personality_v0 {
  %8 = alloca ptr, align 8
  %9 = alloca ptr, align 8
  %10 = alloca ptr, align 8
  %11 = alloca ptr, align 8
  %12 = alloca ptr, align 8
  %13 = alloca ptr, align 8
  %14 = alloca ptr, align 8
  %15 = alloca %"struct.osgeo::proj::operation::VectorOfValues", align 8
  %16 = alloca ptr, align 8
  %17 = alloca i32, align 4
  store ptr %0, ptr %8, align 8
  store ptr %1, ptr %9, align 8, !tbaa !57
  store ptr %2, ptr %10, align 8, !tbaa !105
  store ptr %3, ptr %11, align 8, !tbaa !105
  store ptr %4, ptr %12, align 8, !tbaa !107
  store ptr %5, ptr %13, align 8, !tbaa !109
  store ptr %6, ptr %14, align 8, !tbaa !109
  %18 = load ptr, ptr %9, align 8, !tbaa !57
  call void @llvm.lifetime.start.p0(i64 24, ptr %15) #24
  %19 = load ptr, ptr %10, align 8, !tbaa !105
  %20 = load ptr, ptr %11, align 8, !tbaa !105
  %21 = load ptr, ptr %12, align 8, !tbaa !107
  %22 = load ptr, ptr %13, align 8, !tbaa !109
  %23 = load ptr, ptr %14, align 8, !tbaa !109
  call void @_ZN5osgeo4proj9operation12createParamsERKNS0_6common7MeasureES5_S5_S5_S5_(ptr dead_on_unwind writable sret(%"struct.osgeo::proj::operation::VectorOfValues") align 8 %15, ptr noundef nonnull align 8 dereferenceable(24) %19, ptr noundef nonnull align 8 dereferenceable(24) %20, ptr noundef nonnull align 8 dereferenceable(24) %21, ptr noundef nonnull align 8 dereferenceable(24) %22, ptr noundef nonnull align 8 dereferenceable(24) %23)
  invoke void @_ZN5osgeo4proj9operation10Conversion6createERKNS0_4util11PropertyMapEiRKSt6vectorIN7dropbox6oxygen2nnISt10shared_ptrINS1_14ParameterValueEEEESaISE_EE(ptr dead_on_unwind writable sret(%"class.dropbox::oxygen::nn.42") align 8 %0, ptr noundef nonnull align 8 dereferenceable(8) %18, i32 noundef 9807, ptr noundef nonnull align 8 dereferenceable(24) %15)
          to label %24 unwind label %25

24:                                               ; preds = %7
  call void @_ZN5osgeo4proj9operation14VectorOfValuesD1Ev(ptr noundef nonnull align 8 dereferenceable(24) %15) #24
  call void @llvm.lifetime.end.p0(i64 24, ptr %15) #24
  ret void

25:                                               ; preds = %7
  %26 = landingpad { ptr, i32 }
          cleanup
  %27 = extractvalue { ptr, i32 } %26, 0
  store ptr %27, ptr %16, align 8
  %28 = extractvalue { ptr, i32 } %26, 1
  store i32 %28, ptr %17, align 4
  call void @_ZN5osgeo4proj9operation14VectorOfValuesD1Ev(ptr noundef nonnull align 8 dereferenceable(24) %15) #24
  call void @llvm.lifetime.end.p0(i64 24, ptr %15) #24
  br label %29

29:                                               ; preds = %25
  %30 = load ptr, ptr %16, align 8
  %31 = load i32, ptr %17, align 4
  %32 = insertvalue { ptr, i32 } poison, ptr %30, 0
  %33 = insertvalue { ptr, i32 } %32, i32 %31, 1
  resume { ptr, i32 } %33
}